; Function Attrs: mustprogress nofree nounwind willreturn memory(write, argmem: readwrite) uwtable
define noundef double @_ZNK8QuantLib21GemanRoncoroniProcess12stdDeviationEddd(ptr nocapture noundef nonnull readonly align 8 dereferenceable(296) %this, double noundef %t0, double %0, double noundef %dt) unnamed_addr #10 align 2 {
entry:
  %sig2_ = getelementptr inbounds nuw i8, ptr %this, i64 224
  %1 = load double, ptr %sig2_, align 8, !tbaa !63
  %a_ = getelementptr inbounds nuw i8, ptr %this, i64 232
  %2 = load double, ptr %a_, align 8, !tbaa !64
  %b_ = getelementptr inbounds nuw i8, ptr %this, i64 240
  %3 = load double, ptr %b_, align 8, !tbaa !65
  %4 = tail call double @llvm.fmuladd.f64(double %t0, double 0x400921FB54442D18, double %3)
  %call = tail call double @cos(double noundef %4) #21, !tbaa !70
  %mul.i = fmul double %call, %call
  %5 = tail call double @llvm.fmuladd.f64(double %2, double %mul.i, double %1)
  %theta1_ = getelementptr inbounds nuw i8, ptr %this, i64 248
  %6 = load double, ptr %theta1_, align 8, !tbaa !66
  %mul = fmul double %6, 2.000000e+00
  %div = fdiv double %5, %mul
  %mul4 = fmul double %6, -2.000000e+00
  %mul5 = fmul double %dt, %mul4
  %call6 = tail call double @exp(double noundef %mul5) #21, !tbaa !70
  %sub = fsub double 1.000000e+00, %call6
  %mul7 = fmul double %div, %sub
  %call8 = tail call double @sqrt(double noundef %mul7) #21, !tbaa !70
  ret double %call8
}